target datalayout = "e-m:e-p270:32:32-p271:32:32-p272:64:64-i64:64-i128:128-f80:128-n8:16:32:64-S128"
target triple = "x86_64-pc-linux-gnu"

%struct.string_list_item = type { ptr, ptr }

; Function Attrs: nounwind uwtable
define internal i32 @remove_available_paths(ptr noundef %0, ptr noundef %1) #0 {
  %3 = alloca ptr, align 8
  %4 = alloca ptr, align 8
  %5 = alloca ptr, align 8
  %6 = alloca ptr, align 8
  store ptr %0, ptr %3, align 8, !tbaa !40
  store ptr %1, ptr %4, align 8, !tbaa !13
  call void @llvm.lifetime.start.p0(i64 8, ptr %5) #10
  %7 = load ptr, ptr %4, align 8, !tbaa !13
  store ptr %7, ptr %5, align 8, !tbaa !58
  call void @llvm.lifetime.start.p0(i64 8, ptr %6) #10
  %8 = load ptr, ptr %5, align 8, !tbaa !58
  %9 = load ptr, ptr %3, align 8, !tbaa !40
  %10 = getelementptr inbounds nuw %struct.string_list_item, ptr %9, i32 0, i32 0
  %11 = load ptr, ptr %10, align 8, !tbaa !41
  %12 = call ptr @string_list_lookup(ptr noundef %8, ptr noundef %11)
  store ptr %12, ptr %6, align 8, !tbaa !40
  %13 = load ptr, ptr %6, align 8, !tbaa !40
  %14 = icmp ne ptr %13, null
  br i1 %14, label %15, label %21

15:                                               ; preds = %2
  %16 = load ptr, ptr %3, align 8, !tbaa !40
  %17 = getelementptr inbounds nuw %struct.string_list_item, ptr %16, i32 0, i32 1
  %18 = load ptr, ptr %17, align 8, !tbaa !45
  %19 = load ptr, ptr %6, align 8, !tbaa !40
  %20 = getelementptr inbounds nuw %struct.string_list_item, ptr %19, i32 0, i32 1
  store ptr %18, ptr %20, align 8, !tbaa !45
  br label %21

21:                                               ; preds = %15, %2
  %22 = load ptr, ptr %6, align 8, !tbaa !40
  %23 = icmp ne ptr %22, null
  %24 = xor i1 %23, true
  %25 = zext i1 %24 to i32
  call void @llvm.lifetime.end.p0(i64 8, ptr %6) #10
  call void @llvm.lifetime.end.p0(i64 8, ptr %5) #10
  ret i32 %25
}