; Function Attrs: nounwind uwtable
define internal range(i32 0, 2) i32 @remove_available_paths(ptr noundef readonly captures(none) %0, ptr noundef %1) #0 {
  %3 = load ptr, ptr %0, align 8, !tbaa !30
  %4 = tail call ptr @string_list_lookup(ptr noundef %1, ptr noundef %3) #16
  %.not = icmp eq ptr %4, null
  br i1 %.not, label %9, label %5

5:                                                ; preds = %2
  %6 = getelementptr inbounds nuw i8, ptr %0, i64 8
  %7 = load ptr, ptr %6, align 8, !tbaa !34
  %8 = getelementptr inbounds nuw i8, ptr %4, i64 8
  store ptr %7, ptr %8, align 8, !tbaa !34
  br label %9

9:                                                ; preds = %5, %2
  %10 = zext i1 %.not to i32
  ret i32 %10
}